; Function Attrs: mustprogress uwtable
define hidden void @_ZN4cvc58internal4prop10PropEngine10checkProofERKNS_7context6CDListINS0_12NodeTemplateILb1EEENS3_14DefaultCleanUpIS6_EESaIS6_EEE(ptr noundef nonnull readonly align 8 captures(none) dereferenceable(416) %0, ptr noundef nonnull align 8 dereferenceable(74) %1) local_unnamed_addr #4 align 2 {
  %3 = getelementptr inbounds nuw i8, ptr %0, i64 8
  %4 = load ptr, ptr %3, align 8, !tbaa !71
  %5 = tail call noundef zeroext i1 @_ZNK4cvc58internal3Env19isSatProofProducingEv(ptr noundef nonnull align 8 dereferenceable(696) %4)
  br i1 %5, label %6, label %9

6:                                                ; preds = %2
  %7 = getelementptr inbounds nuw i8, ptr %0, i64 312
  %8 = load ptr, ptr %7, align 8, !tbaa !289
  tail call void @_ZN4cvc58internal4prop13PropPfManager10checkProofERKNS_7context6CDListINS0_12NodeTemplateILb1EEENS3_14DefaultCleanUpIS6_EESaIS6_EEE(ptr noundef nonnull align 8 dereferenceable(1096) %8, ptr noundef nonnull align 8 dereferenceable(74) %1)
  br label %9

9:                                                ; preds = %2, %6
  ret void
}